; Function Attrs: mustprogress uwtable
define void @_ZN5osgeo4proj9operation26CoordinateOperationFactory6createEv(ptr dead_on_unwind noalias writable writeonly sret(%"class.dropbox::oxygen::nn.552") align 8 captures(none) initializes((0, 8)) %0) local_unnamed_addr #2 align 2 personality ptr @__gxx_personality_v0 {
_ZNSt10unique_ptrIN5osgeo4proj9operation26CoordinateOperationFactoryESt14default_deleteIS3_EED2Ev.exit:
  %1 = tail call noalias noundef nonnull dereferenceable(16) ptr @_Znwm(i64 noundef 16) #34, !noalias !810
  store ptr getelementptr inbounds nuw inrange(-16, 16) (i8, ptr @_ZTVN5osgeo4proj9operation26CoordinateOperationFactoryE, i64 16), ptr %1, align 8, !tbaa !3, !noalias !810
  %2 = getelementptr inbounds nuw i8, ptr %1, i64 8
  store ptr null, ptr %2, align 8, !tbaa !111, !noalias !810
  %3 = ptrtoint ptr %1 to i64
  store i64 %3, ptr %0, align 8, !tbaa !813
  ret void
}